target datalayout = "e-m:e-p270:32:32-p271:32:32-p272:64:64-i64:64-i128:128-f80:128-n8:16:32:64-S128"
target triple = "x86_64-pc-linux-gnu"

%struct.OutputPluginCallbacks = type { ptr, ptr, ptr, ptr, ptr, ptr, ptr, ptr, ptr, ptr, ptr, ptr, ptr, ptr, ptr, ptr, ptr, ptr, ptr, ptr, ptr }
%struct.LogicalDecodingContext = type { ptr, ptr, ptr, ptr, ptr, i8, %struct.OutputPluginCallbacks, %struct.OutputPluginOptions, ptr, ptr, ptr, ptr, ptr, ptr, ptr, i8, i8, i8, i8, i8, i64, i32, i8, i8 }
%struct.OutputPluginOptions = type { i32, i8 }
%struct.PGOutputData = type { ptr, ptr, ptr, i8, i32, ptr, ptr, i8, i8, i8, i8, i8 }
%struct.ReorderBufferTXN = type { i32, i32, i32, ptr, i64, i64, i64, ptr, i64, i16, i64, %union.anon, ptr, i64, %struct.dlist_node, ptr, i32, i64, i64, %struct.dlist_head, %struct.dlist_head, i64, ptr, ptr, %struct.dlist_head, i32, i32, ptr, %struct.dlist_node, %struct.dlist_node, %struct.pairingheap_node, i64, i64, ptr }
%union.anon = type { i64 }
%struct.dlist_head = type { %struct.dlist_node }
%struct.dlist_node = type { ptr, ptr }
%struct.pairingheap_node = type { ptr, ptr, ptr }
%struct.ReorderBufferChange = type { i64, i32, ptr, i16, %union.anon.0, %struct.dlist_node }
%union.anon.0 = type { %struct.anon }
%struct.anon = type { %struct.RelFileLocator, i8, ptr, ptr }
%struct.RelFileLocator = type { i32, i32, i32 }
%struct.RelationSyncEntry = type { i32, i8, i8, i32, ptr, %struct.PublicationActions, [3 x ptr], ptr, ptr, ptr, i32, ptr, ptr, ptr }
%struct.PublicationActions = type { i8, i8, i8, i8 }
%struct.RelationData = type { %struct.RelFileLocator, ptr, i32, i32, i8, i8, i8, i8, i8, i32, i32, i32, i32, ptr, ptr, i32, %struct.LockInfoData, ptr, ptr, ptr, ptr, ptr, i8, ptr, ptr, ptr, ptr, ptr, ptr, i32, ptr, i8, ptr, ptr, i32, i8, i32, ptr, i8, ptr, ptr, ptr, ptr, ptr, ptr, ptr, i32, ptr, ptr, ptr, ptr, ptr, ptr, ptr, ptr, ptr, ptr, ptr, ptr, ptr, ptr, ptr, ptr, ptr, ptr, ptr, i32, i8, ptr }
%struct.LockInfoData = type { %struct.LockRelId }
%struct.LockRelId = type { i32, i32 }

@CacheMemoryContext = external global ptr, align 8
@CurrentMemoryContext = external global ptr, align 8

; Function Attrs: inlinehint nounwind uwtable
define internal ptr @MemoryContextSwitchTo(ptr noundef %0) #8 {
  %2 = alloca ptr, align 8
  %3 = alloca ptr, align 8
  store ptr %0, ptr %2, align 8
  call void @llvm.lifetime.start.p0(i64 8, ptr %3) #10
  %4 = load ptr, ptr @CurrentMemoryContext, align 8
  store ptr %4, ptr %3, align 8
  %5 = load ptr, ptr %2, align 8
  store ptr %5, ptr @CurrentMemoryContext, align 8
  %6 = load ptr, ptr %3, align 8
  call void @llvm.lifetime.end.p0(i64 8, ptr %3) #10
  ret ptr %6
}

; Function Attrs: nounwind uwtable
define internal void @set_schema_sent_in_streamed_txn(ptr noundef %0, i32 noundef %1) #0 {
  %3 = alloca ptr, align 8
  %4 = alloca i32, align 4
  %5 = alloca ptr, align 8
  store ptr %0, ptr %3, align 8
  store i32 %1, ptr %4, align 4
  call void @llvm.lifetime.start.p0(i64 8, ptr %5) #10
  %6 = load ptr, ptr @CacheMemoryContext, align 8
  %7 = call ptr @MemoryContextSwitchTo(ptr noundef %6)
  store ptr %7, ptr %5, align 8
  %8 = load ptr, ptr %3, align 8
  %9 = getelementptr inbounds nuw %struct.RelationSyncEntry, ptr %8, i32 0, i32 4
  %10 = load ptr, ptr %9, align 8
  %11 = load i32, ptr %4, align 4
  %12 = call ptr @lappend_xid(ptr noundef %10, i32 noundef %11)
  %13 = load ptr, ptr %3, align 8
  %14 = getelementptr inbounds nuw %struct.RelationSyncEntry, ptr %13, i32 0, i32 4
  store ptr %12, ptr %14, align 8
  %15 = load ptr, ptr %5, align 8
  %16 = call ptr @MemoryContextSwitchTo(ptr noundef %15)
  call void @llvm.lifetime.end.p0(i64 8, ptr %5) #10
  ret void
}

; Function Attrs: nounwind uwtable
define internal zeroext i1 @get_schema_sent_in_streamed_txn(ptr noundef %0, i32 noundef %1) #0 {
  %3 = alloca ptr, align 8
  %4 = alloca i32, align 4
  store ptr %0, ptr %3, align 8
  store i32 %1, ptr %4, align 4
  %5 = load ptr, ptr %3, align 8
  %6 = getelementptr inbounds nuw %struct.RelationSyncEntry, ptr %5, i32 0, i32 4
  %7 = load ptr, ptr %6, align 8
  %8 = load i32, ptr %4, align 4
  %9 = call zeroext i1 @list_member_xid(ptr noundef %7, i32 noundef %8)
  ret i1 %9
}

; Function Attrs: nounwind uwtable
define internal void @maybe_send_schema(ptr noundef %0, ptr noundef %1, ptr noundef %2, ptr noundef %3) #0 {
  %5 = alloca ptr, align 8
  %6 = alloca ptr, align 8
  %7 = alloca ptr, align 8
  %8 = alloca ptr, align 8
  %9 = alloca ptr, align 8
  %10 = alloca i8, align 1
  %11 = alloca i32, align 4
  %12 = alloca i32, align 4
  %13 = alloca i32, align 4
  %14 = alloca ptr, align 8
  store ptr %0, ptr %5, align 8
  store ptr %1, ptr %6, align 8
  store ptr %2, ptr %7, align 8
  store ptr %3, ptr %8, align 8
  call void @llvm.lifetime.start.p0(i64 8, ptr %9) #10
  %15 = load ptr, ptr %5, align 8
  %16 = getelementptr inbounds nuw %struct.LogicalDecodingContext, ptr %15, i32 0, i32 13
  %17 = load ptr, ptr %16, align 8
  store ptr %17, ptr %9, align 8
  call void @llvm.lifetime.start.p0(i64 1, ptr %10) #10
  call void @llvm.lifetime.start.p0(i64 4, ptr %11) #10
  store i32 0, ptr %11, align 4
  call void @llvm.lifetime.start.p0(i64 4, ptr %12) #10
  store i32 0, ptr %12, align 4
  %18 = load ptr, ptr %9, align 8
  %19 = getelementptr inbounds nuw %struct.PGOutputData, ptr %18, i32 0, i32 3
  %20 = load i8, ptr %19, align 8, !range !3, !noundef !4
  %21 = trunc i8 %20 to i1
  br i1 %21, label %22, label %28

22:                                               ; preds = %4
  %23 = load ptr, ptr %6, align 8
  %24 = getelementptr inbounds nuw %struct.ReorderBufferChange, ptr %23, i32 0, i32 2
  %25 = load ptr, ptr %24, align 8
  %26 = getelementptr inbounds nuw %struct.ReorderBufferTXN, ptr %25, i32 0, i32 1
  %27 = load i32, ptr %26, align 4
  store i32 %27, ptr %11, align 4
  br label %28

28:                                               ; preds = %22, %4
  %29 = load ptr, ptr %6, align 8
  %30 = getelementptr inbounds nuw %struct.ReorderBufferChange, ptr %29, i32 0, i32 2
  %31 = load ptr, ptr %30, align 8
  %32 = getelementptr inbounds nuw %struct.ReorderBufferTXN, ptr %31, i32 0, i32 7
  %33 = load ptr, ptr %32, align 8
  %34 = icmp ne ptr %33, null
  br i1 %34, label %35, label %56

35:                                               ; preds = %28
  %36 = load ptr, ptr %6, align 8
  %37 = getelementptr inbounds nuw %struct.ReorderBufferChange, ptr %36, i32 0, i32 2
  %38 = load ptr, ptr %37, align 8
  %39 = getelementptr inbounds nuw %struct.ReorderBufferTXN, ptr %38, i32 0, i32 7
  %40 = load ptr, ptr %39, align 8
  %41 = icmp ne ptr %40, null
  br i1 %41, label %42, label %48

42:                                               ; preds = %35
  %43 = load ptr, ptr %6, align 8
  %44 = getelementptr inbounds nuw %struct.ReorderBufferChange, ptr %43, i32 0, i32 2
  %45 = load ptr, ptr %44, align 8
  %46 = getelementptr inbounds nuw %struct.ReorderBufferTXN, ptr %45, i32 0, i32 7
  %47 = load ptr, ptr %46, align 8
  br label %52

48:                                               ; preds = %35
  %49 = load ptr, ptr %6, align 8
  %50 = getelementptr inbounds nuw %struct.ReorderBufferChange, ptr %49, i32 0, i32 2
  %51 = load ptr, ptr %50, align 8
  br label %52

52:                                               ; preds = %48, %42
  %53 = phi ptr [ %47, %42 ], [ %51, %48 ]
  %54 = getelementptr inbounds nuw %struct.ReorderBufferTXN, ptr %53, i32 0, i32 1
  %55 = load i32, ptr %54, align 4
  store i32 %55, ptr %12, align 4
  br label %58

56:                                               ; preds = %28
  %57 = load i32, ptr %11, align 4
  store i32 %57, ptr %12, align 4
  br label %58

58:                                               ; preds = %56, %52
  %59 = load ptr, ptr %9, align 8
  %60 = getelementptr inbounds nuw %struct.PGOutputData, ptr %59, i32 0, i32 3
  %61 = load i8, ptr %60, align 8, !range !3, !noundef !4
  %62 = trunc i8 %61 to i1
  br i1 %62, label %63, label %68

63:                                               ; preds = %58
  %64 = load ptr, ptr %8, align 8
  %65 = load i32, ptr %12, align 4
  %66 = call zeroext i1 @get_schema_sent_in_streamed_txn(ptr noundef %64, i32 noundef %65)
  %67 = zext i1 %66 to i8
  store i8 %67, ptr %10, align 1
  br label %74

68:                                               ; preds = %58
  %69 = load ptr, ptr %8, align 8
  %70 = getelementptr inbounds nuw %struct.RelationSyncEntry, ptr %69, i32 0, i32 2
  %71 = load i8, ptr %70, align 1, !range !3, !noundef !4
  %72 = trunc i8 %71 to i1
  %73 = zext i1 %72 to i8
  store i8 %73, ptr %10, align 1
  br label %74

74:                                               ; preds = %68, %63
  %75 = load i8, ptr %10, align 1, !range !3, !noundef !4
  %76 = trunc i8 %75 to i1
  br i1 %76, label %77, label %78

77:                                               ; preds = %74
  store i32 1, ptr %13, align 4
  br label %112

78:                                               ; preds = %74
  %79 = load ptr, ptr %8, align 8
  %80 = getelementptr inbounds nuw %struct.RelationSyncEntry, ptr %79, i32 0, i32 10
  %81 = load i32, ptr %80, align 8
  %82 = load ptr, ptr %7, align 8
  %83 = getelementptr inbounds nuw %struct.RelationData, ptr %82, i32 0, i32 15
  %84 = load i32, ptr %83, align 8
  %85 = icmp ne i32 %81, %84
  br i1 %85, label %86, label %96

86:                                               ; preds = %78
  call void @llvm.lifetime.start.p0(i64 8, ptr %14) #10
  %87 = load ptr, ptr %8, align 8
  %88 = getelementptr inbounds nuw %struct.RelationSyncEntry, ptr %87, i32 0, i32 10
  %89 = load i32, ptr %88, align 8
  %90 = call ptr @RelationIdGetRelation(i32 noundef %89)
  store ptr %90, ptr %14, align 8
  %91 = load ptr, ptr %14, align 8
  %92 = load i32, ptr %11, align 4
  %93 = load ptr, ptr %5, align 8
  %94 = load ptr, ptr %8, align 8
  call void @send_relation_and_attrs(ptr noundef %91, i32 noundef %92, ptr noundef %93, ptr noundef %94)
  %95 = load ptr, ptr %14, align 8
  call void @RelationClose(ptr noundef %95)
  call void @llvm.lifetime.end.p0(i64 8, ptr %14) #10
  br label %96

96:                                               ; preds = %86, %78
  %97 = load ptr, ptr %7, align 8
  %98 = load i32, ptr %11, align 4
  %99 = load ptr, ptr %5, align 8
  %100 = load ptr, ptr %8, align 8
  call void @send_relation_and_attrs(ptr noundef %97, i32 noundef %98, ptr noundef %99, ptr noundef %100)
  %101 = load ptr, ptr %9, align 8
  %102 = getelementptr inbounds nuw %struct.PGOutputData, ptr %101, i32 0, i32 3
  %103 = load i8, ptr %102, align 8, !range !3, !noundef !4
  %104 = trunc i8 %103 to i1
  br i1 %104, label %105, label %108

105:                                              ; preds = %96
  %106 = load ptr, ptr %8, align 8
  %107 = load i32, ptr %12, align 4
  call void @set_schema_sent_in_streamed_txn(ptr noundef %106, i32 noundef %107)
  br label %111

108:                                              ; preds = %96
  %109 = load ptr, ptr %8, align 8
  %110 = getelementptr inbounds nuw %struct.RelationSyncEntry, ptr %109, i32 0, i32 2
  store i8 1, ptr %110, align 1
  br label %111

111:                                              ; preds = %108, %105
  store i32 0, ptr %13, align 4
  br label %112

112:                                              ; preds = %111, %77
  call void @llvm.lifetime.end.p0(i64 4, ptr %12) #10
  call void @llvm.lifetime.end.p0(i64 4, ptr %11) #10
  call void @llvm.lifetime.end.p0(i64 1, ptr %10) #10
  call void @llvm.lifetime.end.p0(i64 8, ptr %9) #10
  %113 = load i32, ptr %13, align 4
  switch i32 %113, label %115 [
    i32 0, label %114
    i32 1, label %114
  ]

114:                                              ; preds = %112, %112
  ret void

115:                                              ; preds = %112
  unreachable
}