; Function Attrs: nounwind uwtable
define internal fastcc void @maybe_send_schema(ptr noundef %0, ptr noundef readonly captures(none) %1, ptr noundef %2, ptr noundef captures(none) %3) unnamed_addr #2 {
  %5 = getelementptr inbounds nuw i8, ptr %0, i64 264
  %6 = load ptr, ptr %5, align 8
  %7 = getelementptr inbounds nuw i8, ptr %6, i64 24
  %8 = load i8, ptr %7, align 8, !range !3, !noundef !4
  %9 = trunc nuw i8 %8 to i1
  %10 = getelementptr inbounds nuw i8, ptr %1, i64 16
  %11 = load ptr, ptr %10, align 8
  br i1 %9, label %12, label %._crit_edge

12:                                               ; preds = %4
  %13 = getelementptr inbounds nuw i8, ptr %11, i64 4
  %14 = load i32, ptr %13, align 4
  br label %._crit_edge

._crit_edge:                                      ; preds = %4, %12
  %.029 = phi i32 [ %14, %12 ], [ 0, %4 ]
  %15 = getelementptr inbounds nuw i8, ptr %11, i64 48
  %16 = load ptr, ptr %15, align 8
  %.not = icmp eq ptr %16, null
  br i1 %.not, label %20, label %17

17:                                               ; preds = %._crit_edge
  %18 = getelementptr inbounds nuw i8, ptr %16, i64 4
  %19 = load i32, ptr %18, align 4
  br label %20

20:                                               ; preds = %._crit_edge, %17
  %.028 = phi i32 [ %19, %17 ], [ %.029, %._crit_edge ]
  br i1 %9, label %21, label %24

21:                                               ; preds = %20
  %22 = getelementptr i8, ptr %3, i64 16
  %.val = load ptr, ptr %22, align 8
  %23 = tail call zeroext i1 @list_member_xid(ptr noundef %.val, i32 noundef %.028) #13
  br i1 %23, label %50, label %28

24:                                               ; preds = %20
  %25 = getelementptr inbounds nuw i8, ptr %3, i64 5
  %26 = load i8, ptr %25, align 1, !range !3, !noundef !4
  %27 = trunc nuw i8 %26 to i1
  br i1 %27, label %50, label %28

28:                                               ; preds = %21, %24
  %29 = getelementptr inbounds nuw i8, ptr %3, i64 80
  %30 = load i32, ptr %29, align 8
  %31 = getelementptr inbounds nuw i8, ptr %2, i64 72
  %32 = load i32, ptr %31, align 8
  %.not32 = icmp eq i32 %30, %32
  br i1 %.not32, label %37, label %33

33:                                               ; preds = %28
  %34 = tail call ptr @RelationIdGetRelation(i32 noundef %30) #13
  %35 = getelementptr i8, ptr %3, i64 8
  %.val33 = load i32, ptr %35, align 8
  %36 = getelementptr i8, ptr %3, i64 96
  %.val34 = load ptr, ptr %36, align 8
  tail call fastcc void @send_relation_and_attrs(ptr noundef %34, i32 noundef %.029, ptr noundef nonnull %0, i32 %.val33, ptr %.val34)
  tail call void @RelationClose(ptr noundef %34) #13
  br label %37

37:                                               ; preds = %33, %28
  %38 = getelementptr i8, ptr %3, i64 8
  %.val35 = load i32, ptr %38, align 8
  %39 = getelementptr i8, ptr %3, i64 96
  %.val36 = load ptr, ptr %39, align 8
  tail call fastcc void @send_relation_and_attrs(ptr noundef nonnull %2, i32 noundef %.029, ptr noundef nonnull %0, i32 %.val35, ptr %.val36)
  %40 = load i8, ptr %7, align 8, !range !3, !noundef !4
  %41 = trunc nuw i8 %40 to i1
  br i1 %41, label %42, label %48

42:                                               ; preds = %37
  %43 = load ptr, ptr @CacheMemoryContext, align 8
  %44 = load ptr, ptr @CurrentMemoryContext, align 8
  store ptr %43, ptr @CurrentMemoryContext, align 8
  %45 = getelementptr inbounds nuw i8, ptr %3, i64 16
  %46 = load ptr, ptr %45, align 8
  %47 = tail call ptr @lappend_xid(ptr noundef %46, i32 noundef %.028) #13
  store ptr %47, ptr %45, align 8
  store ptr %44, ptr @CurrentMemoryContext, align 8
  br label %50

48:                                               ; preds = %37
  %49 = getelementptr inbounds nuw i8, ptr %3, i64 5
  store i8 1, ptr %49, align 1
  br label %50

50:                                               ; preds = %21, %42, %48, %24
  ret void
}